; Function Attrs: nounwind uwtable
define void @Acb_NtkCollectNewTfi1_rec(ptr noundef readonly captures(none) %0, i32 noundef %1, ptr noundef captures(none) %2) local_unnamed_addr #0 {
  %4 = getelementptr i8, ptr %0, i64 96
  %.val19 = load i32, ptr %4, align 8, !tbaa !73
  %5 = getelementptr i8, ptr %0, i64 264
  %.val20 = load ptr, ptr %5, align 8, !tbaa !18
  %6 = sext i32 %1 to i64
  %7 = getelementptr inbounds i32, ptr %.val20, i64 %6
  %8 = load i32, ptr %7, align 4, !tbaa !19
  %9 = add nsw i32 %.val19, -1
  %.not = icmp eq i32 %8, %9
  br i1 %.not, label %10, label %56

10:                                               ; preds = %3
  %.not21 = icmp eq i32 %8, %.val19
  store i32 %.val19, ptr %7, align 4, !tbaa !19
  br i1 %.not21, label %56, label %11

11:                                               ; preds = %10
  %12 = getelementptr i8, ptr %0, i64 136
  %.val = load ptr, ptr %12, align 8, !tbaa !18
  %13 = getelementptr i8, ptr %0, i64 152
  %.val16 = load ptr, ptr %13, align 8, !tbaa !18
  %14 = getelementptr inbounds i32, ptr %.val, i64 %6
  %15 = load i32, ptr %14, align 4, !tbaa !19
  %16 = sext i32 %15 to i64
  %17 = getelementptr inbounds i32, ptr %.val16, i64 %16
  %18 = load i32, ptr %17, align 4, !tbaa !19
  %19 = icmp sgt i32 %18, 0
  br i1 %19, label %.lr.ph, label %.critedge

.lr.ph:                                           ; preds = %11, %.lr.ph
  %indvars.iv = phi i64 [ %indvars.iv.next, %.lr.ph ], [ 0, %11 ]
  %indvars.iv.next = add nuw nsw i64 %indvars.iv, 1
  %20 = getelementptr inbounds nuw i32, ptr %17, i64 %indvars.iv.next
  %21 = load i32, ptr %20, align 4, !tbaa !19
  tail call void @Acb_NtkCollectNewTfi1_rec(ptr noundef %0, i32 noundef %21, ptr noundef %2)
  %22 = load i32, ptr %17, align 4, !tbaa !19
  %23 = sext i32 %22 to i64
  %24 = icmp slt i64 %indvars.iv.next, %23
  br i1 %24, label %.lr.ph, label %.critedge, !llvm.loop !92

.critedge:                                        ; preds = %.lr.ph, %11
  %25 = getelementptr inbounds nuw i8, ptr %2, i64 4
  %26 = load i32, ptr %25, align 4, !tbaa !15
  %27 = load i32, ptr %2, align 8, !tbaa !31
  %28 = icmp eq i32 %26, %27
  br i1 %28, label %29, label %.Vec_IntGrow.exit10_crit_edge.i

.Vec_IntGrow.exit10_crit_edge.i:                  ; preds = %.critedge
  %.phi.trans.insert.i = getelementptr inbounds nuw i8, ptr %2, i64 8
  %.pre.i = load ptr, ptr %.phi.trans.insert.i, align 8, !tbaa !18
  br label %Vec_IntPush.exit

29:                                               ; preds = %.critedge
  %30 = icmp slt i32 %26, 16
  br i1 %30, label %31, label %39

31:                                               ; preds = %29
  %32 = getelementptr inbounds nuw i8, ptr %2, i64 8
  %33 = load ptr, ptr %32, align 8, !tbaa !18
  %.not9.i.i = icmp eq ptr %33, null
  br i1 %.not9.i.i, label %36, label %34

34:                                               ; preds = %31
  %35 = tail call dereferenceable_or_null(64) ptr @realloc(ptr noundef nonnull %33, i64 noundef 64) #23
  br label %Vec_IntGrow.exit.i

36:                                               ; preds = %31
  %37 = tail call noalias dereferenceable_or_null(64) ptr @malloc(i64 noundef 64) #24
  br label %Vec_IntGrow.exit.i

Vec_IntGrow.exit.i:                               ; preds = %36, %34
  %38 = phi ptr [ %35, %34 ], [ %37, %36 ]
  store ptr %38, ptr %32, align 8, !tbaa !18
  store i32 16, ptr %2, align 8, !tbaa !31
  br label %Vec_IntPush.exit

39:                                               ; preds = %29
  %40 = shl nuw nsw i32 %26, 1
  %41 = getelementptr inbounds nuw i8, ptr %2, i64 8
  %42 = load ptr, ptr %41, align 8, !tbaa !18
  %.not9.i9.i = icmp eq ptr %42, null
  %43 = zext nneg i32 %40 to i64
  %44 = shl nuw nsw i64 %43, 2
  br i1 %.not9.i9.i, label %47, label %45

45:                                               ; preds = %39
  %46 = tail call ptr @realloc(ptr noundef nonnull %42, i64 noundef %44) #23
  br label %49

47:                                               ; preds = %39
  %48 = tail call noalias ptr @malloc(i64 noundef %44) #24
  br label %49

49:                                               ; preds = %47, %45
  %50 = phi ptr [ %46, %45 ], [ %48, %47 ]
  store ptr %50, ptr %41, align 8, !tbaa !18
  store i32 %40, ptr %2, align 8, !tbaa !31
  br label %Vec_IntPush.exit

Vec_IntPush.exit:                                 ; preds = %.Vec_IntGrow.exit10_crit_edge.i, %Vec_IntGrow.exit.i, %49
  %51 = phi ptr [ %.pre.i, %.Vec_IntGrow.exit10_crit_edge.i ], [ %50, %49 ], [ %38, %Vec_IntGrow.exit.i ]
  %52 = load i32, ptr %25, align 4, !tbaa !15
  %53 = add nsw i32 %52, 1
  store i32 %53, ptr %25, align 4, !tbaa !15
  %54 = sext i32 %52 to i64
  %55 = getelementptr inbounds i32, ptr %51, i64 %54
  store i32 %1, ptr %55, align 4, !tbaa !19
  br label %56

56:                                               ; preds = %10, %3, %Vec_IntPush.exit
  ret void
}